target datalayout = "e-m:e-p270:32:32-p271:32:32-p272:64:64-i64:64-i128:128-f80:128-n8:16:32:64-S128"
target triple = "x86_64-pc-linux-gnu"

%struct.ssl_connection_st = type { %struct.ssl_st, ptr, i32, ptr, ptr, ptr, i32, ptr, i32, i32, i32, i32, %struct.OSSL_TIME, %struct.OSSL_TIME, %struct.ossl_statem_st, i32, ptr, ptr, i64, i64, i64, %struct.ossl_quic_tls_callbacks_st, ptr, ptr, %struct.anon, ptr, ptr, ptr, i32, ptr, %struct.ssl_dane_st, ptr, ptr, ptr, ptr, i32, [64 x i8], [64 x i8], [64 x i8], [64 x i8], [64 x i8], [64 x i8], [64 x i8], [64 x i8], [64 x i8], [64 x i8], [64 x i8], [64 x i8], ptr, [64 x i8], i64, i32, i64, [32 x i8], ptr, ptr, ptr, i64, ptr, [32 x i8], i64, i32, ptr, ptr, i32, i32, ptr, ptr, ptr, ptr, ptr, i64, ptr, ptr, i64, i32, i32, i32, i64, i32, i32, i64, i64, i64, %struct.anon.1, ptr, i32, ptr, ptr, ptr, i32, ptr, ptr, ptr, i32, i32, i32, i32, ptr, i64, i32, ptr, %struct.srp_ctx_st, ptr, %struct.record_layer_st, ptr, ptr, ptr, ptr, i64, i32, i32, i32, i64, i64, i64, ptr, ptr, ptr, ptr, ptr, i64, ptr, i64, ptr, i64 }
%struct.ssl_st = type { i32, ptr, ptr, ptr, %struct.CRYPTO_REF_COUNT, ptr, %struct.crypto_ex_data_st }
%struct.CRYPTO_REF_COUNT = type { i32 }
%struct.crypto_ex_data_st = type { ptr, ptr }
%struct.OSSL_TIME = type { i64 }
%struct.ossl_statem_st = type { i32, i32, i32, i32, i32, i32, i32, i32, i32, i32, i32, i32, i32, ptr, ptr, ptr, i8 }
%struct.ossl_quic_tls_callbacks_st = type { ptr, ptr, ptr, ptr, ptr, ptr }
%struct.anon = type { i64, [32 x i8], [32 x i8], ptr, ptr, i32, i32, i32, i32, [2 x i8], i32, i32, i32, i32, %struct.anon.0, [64 x i8], i64, [64 x i8], i64, i32, i32, ptr, i64, ptr, i64, i32, i8, i8, i16, ptr, i16 }
%struct.anon.0 = type { [128 x i8], i64, [128 x i8], i64, i64, i32, ptr, ptr, [4 x ptr], [4 x i16], i64, i32, ptr, i64, ptr, i64, ptr, ptr, ptr, i32, i64, ptr, i32, ptr, i64, ptr, i64, ptr, i64, ptr, ptr, ptr, ptr, i64, i64, ptr, ptr, i32, i32, i32, i32 }
%struct.ssl_dane_st = type { ptr, ptr, ptr, ptr, ptr, i32, i32, i32, i64 }
%struct.anon.1 = type { [29 x i8], ptr, ptr, ptr, i32, ptr, i16, i32, %struct.anon.2, i32, i32, i64, ptr, i64, ptr, i64, ptr, i64, ptr, i64, ptr, i64, ptr, ptr, ptr, ptr, ptr, ptr, ptr, i64, ptr, i64, i32, i32, i32, i32, ptr, i64, i32, i8, i32, [4 x i32], i32, i8, i8, i8, i8 }
%struct.anon.2 = type { ptr, ptr, ptr, i64 }
%struct.srp_ctx_st = type { ptr, ptr, ptr, ptr, ptr, ptr, ptr, ptr, ptr, ptr, ptr, ptr, ptr, ptr, i32, i64 }
%struct.record_layer_st = type { ptr, ptr, ptr, ptr, ptr, ptr, ptr, ptr, i64, i32, i64, [4 x i8], i64, i64, i8, ptr, i32, ptr, ptr, ptr, i64, i64, i64, i64, [32 x %struct.tls_record_st] }
%struct.tls_record_st = type { ptr, i32, i8, ptr, ptr, i64, i64, i16, [8 x i8] }
%struct.CLIENTHELLO_MSG = type { i32, i32, [32 x i8], i64, [32 x i8], i64, [255 x i8], %struct.PACKET, i64, [255 x i8], %struct.PACKET, i64, ptr }
%struct.PACKET = type { ptr, i64 }
%struct.raw_extension_st = type { %struct.PACKET, i32, i32, i32, i64 }

@.str = private unnamed_addr constant [25 x i8] c"../openssl/ssl/ssl_lib.c\00", align 1

; Function Attrs: nounwind uwtable
define i32 @SSL_client_hello_get1_extensions_present(ptr noundef %0, ptr noundef %1, ptr noundef %2) #0 {
  %4 = alloca i32, align 4
  %5 = alloca ptr, align 8
  %6 = alloca ptr, align 8
  %7 = alloca ptr, align 8
  %8 = alloca ptr, align 8
  %9 = alloca ptr, align 8
  %10 = alloca i64, align 8
  %11 = alloca i64, align 8
  %12 = alloca ptr, align 8
  %13 = alloca i32, align 4
  store ptr %0, ptr %5, align 8, !tbaa !16
  store ptr %1, ptr %6, align 8, !tbaa !569
  store ptr %2, ptr %7, align 8, !tbaa !12
  call void @llvm.lifetime.start.p0(i64 8, ptr %8) #9
  call void @llvm.lifetime.start.p0(i64 8, ptr %9) #9
  call void @llvm.lifetime.start.p0(i64 8, ptr %10) #9
  store i64 0, ptr %10, align 8, !tbaa !10
  call void @llvm.lifetime.start.p0(i64 8, ptr %11) #9
  call void @llvm.lifetime.start.p0(i64 8, ptr %12) #9
  %14 = load ptr, ptr %5, align 8, !tbaa !16
  %15 = icmp eq ptr %14, null
  br i1 %15, label %16, label %17

16:                                               ; preds = %3
  br label %38

17:                                               ; preds = %3
  %18 = load ptr, ptr %5, align 8, !tbaa !16
  %19 = getelementptr inbounds nuw %struct.ssl_st, ptr %18, i32 0, i32 0
  %20 = load i32, ptr %19, align 8, !tbaa !29
  %21 = icmp eq i32 %20, 0
  br i1 %21, label %22, label %24

22:                                               ; preds = %17
  %23 = load ptr, ptr %5, align 8, !tbaa !16
  br label %36

24:                                               ; preds = %17
  %25 = load ptr, ptr %5, align 8, !tbaa !16
  %26 = getelementptr inbounds nuw %struct.ssl_st, ptr %25, i32 0, i32 0
  %27 = load i32, ptr %26, align 8, !tbaa !29
  %28 = and i32 %27, 128
  %29 = icmp ne i32 %28, 0
  br i1 %29, label %30, label %33

30:                                               ; preds = %24
  %31 = load ptr, ptr %5, align 8, !tbaa !16
  %32 = call ptr @ossl_quic_obj_get0_handshake_layer(ptr noundef %31)
  br label %34

33:                                               ; preds = %24
  br label %34

34:                                               ; preds = %33, %30
  %35 = phi ptr [ %32, %30 ], [ null, %33 ]
  br label %36

36:                                               ; preds = %34, %22
  %37 = phi ptr [ %23, %22 ], [ %35, %34 ]
  br label %38

38:                                               ; preds = %36, %16
  %39 = phi ptr [ null, %16 ], [ %37, %36 ]
  store ptr %39, ptr %12, align 8, !tbaa !3
  %40 = load ptr, ptr %12, align 8, !tbaa !3
  %41 = icmp eq ptr %40, null
  br i1 %41, label %42, label %43

42:                                               ; preds = %38
  store i32 0, ptr %4, align 4
  store i32 1, ptr %13, align 4
  br label %143

43:                                               ; preds = %38
  %44 = load ptr, ptr %12, align 8, !tbaa !3
  %45 = getelementptr inbounds nuw %struct.ssl_connection_st, ptr %44, i32 0, i32 85
  %46 = load ptr, ptr %45, align 8, !tbaa !376
  %47 = icmp eq ptr %46, null
  br i1 %47, label %54, label %48

48:                                               ; preds = %43
  %49 = load ptr, ptr %6, align 8, !tbaa !569
  %50 = icmp eq ptr %49, null
  br i1 %50, label %54, label %51

51:                                               ; preds = %48
  %52 = load ptr, ptr %7, align 8, !tbaa !12
  %53 = icmp eq ptr %52, null
  br i1 %53, label %54, label %55

54:                                               ; preds = %51, %48, %43
  store i32 0, ptr %4, align 4
  store i32 1, ptr %13, align 4
  br label %143

55:                                               ; preds = %51
  store i64 0, ptr %11, align 8, !tbaa !10
  br label %56

56:                                               ; preds = %80, %55
  %57 = load i64, ptr %11, align 8, !tbaa !10
  %58 = load ptr, ptr %12, align 8, !tbaa !3
  %59 = getelementptr inbounds nuw %struct.ssl_connection_st, ptr %58, i32 0, i32 85
  %60 = load ptr, ptr %59, align 8, !tbaa !376
  %61 = getelementptr inbounds nuw %struct.CLIENTHELLO_MSG, ptr %60, i32 0, i32 11
  %62 = load i64, ptr %61, align 8, !tbaa !571
  %63 = icmp ult i64 %57, %62
  br i1 %63, label %64, label %83

64:                                               ; preds = %56
  %65 = load ptr, ptr %12, align 8, !tbaa !3
  %66 = getelementptr inbounds nuw %struct.ssl_connection_st, ptr %65, i32 0, i32 85
  %67 = load ptr, ptr %66, align 8, !tbaa !376
  %68 = getelementptr inbounds nuw %struct.CLIENTHELLO_MSG, ptr %67, i32 0, i32 12
  %69 = load ptr, ptr %68, align 8, !tbaa !377
  %70 = load i64, ptr %11, align 8, !tbaa !10
  %71 = getelementptr inbounds nuw %struct.raw_extension_st, ptr %69, i64 %70
  store ptr %71, ptr %8, align 8, !tbaa !572
  %72 = load ptr, ptr %8, align 8, !tbaa !572
  %73 = getelementptr inbounds nuw %struct.raw_extension_st, ptr %72, i32 0, i32 1
  %74 = load i32, ptr %73, align 8, !tbaa !573
  %75 = icmp ne i32 %74, 0
  br i1 %75, label %76, label %79

76:                                               ; preds = %64
  %77 = load i64, ptr %10, align 8, !tbaa !10
  %78 = add i64 %77, 1
  store i64 %78, ptr %10, align 8, !tbaa !10
  br label %79

79:                                               ; preds = %76, %64
  br label %80

80:                                               ; preds = %79
  %81 = load i64, ptr %11, align 8, !tbaa !10
  %82 = add i64 %81, 1
  store i64 %82, ptr %11, align 8, !tbaa !10
  br label %56, !llvm.loop !575

83:                                               ; preds = %56
  %84 = load i64, ptr %10, align 8, !tbaa !10
  %85 = icmp eq i64 %84, 0
  br i1 %85, label %86, label %89

86:                                               ; preds = %83
  %87 = load ptr, ptr %6, align 8, !tbaa !569
  store ptr null, ptr %87, align 8, !tbaa !270
  %88 = load ptr, ptr %7, align 8, !tbaa !12
  store i64 0, ptr %88, align 8, !tbaa !10
  store i32 1, ptr %4, align 4
  store i32 1, ptr %13, align 4
  br label %143

89:                                               ; preds = %83
  %90 = load i64, ptr %10, align 8, !tbaa !10
  %91 = mul i64 4, %90
  %92 = call noalias ptr @CRYPTO_malloc(i64 noundef %91, ptr noundef @.str, i32 noundef 6805)
  store ptr %92, ptr %9, align 8, !tbaa !270
  %93 = icmp eq ptr %92, null
  br i1 %93, label %94, label %95

94:                                               ; preds = %89
  store i32 0, ptr %4, align 4
  store i32 1, ptr %13, align 4
  br label %143

95:                                               ; preds = %89
  store i64 0, ptr %11, align 8, !tbaa !10
  br label %96

96:                                               ; preds = %133, %95
  %97 = load i64, ptr %11, align 8, !tbaa !10
  %98 = load ptr, ptr %12, align 8, !tbaa !3
  %99 = getelementptr inbounds nuw %struct.ssl_connection_st, ptr %98, i32 0, i32 85
  %100 = load ptr, ptr %99, align 8, !tbaa !376
  %101 = getelementptr inbounds nuw %struct.CLIENTHELLO_MSG, ptr %100, i32 0, i32 11
  %102 = load i64, ptr %101, align 8, !tbaa !571
  %103 = icmp ult i64 %97, %102
  br i1 %103, label %104, label %136

104:                                              ; preds = %96
  %105 = load ptr, ptr %12, align 8, !tbaa !3
  %106 = getelementptr inbounds nuw %struct.ssl_connection_st, ptr %105, i32 0, i32 85
  %107 = load ptr, ptr %106, align 8, !tbaa !376
  %108 = getelementptr inbounds nuw %struct.CLIENTHELLO_MSG, ptr %107, i32 0, i32 12
  %109 = load ptr, ptr %108, align 8, !tbaa !377
  %110 = load i64, ptr %11, align 8, !tbaa !10
  %111 = getelementptr inbounds nuw %struct.raw_extension_st, ptr %109, i64 %110
  store ptr %111, ptr %8, align 8, !tbaa !572
  %112 = load ptr, ptr %8, align 8, !tbaa !572
  %113 = getelementptr inbounds nuw %struct.raw_extension_st, ptr %112, i32 0, i32 1
  %114 = load i32, ptr %113, align 8, !tbaa !573
  %115 = icmp ne i32 %114, 0
  br i1 %115, label %116, label %132

116:                                              ; preds = %104
  %117 = load ptr, ptr %8, align 8, !tbaa !572
  %118 = getelementptr inbounds nuw %struct.raw_extension_st, ptr %117, i32 0, i32 4
  %119 = load i64, ptr %118, align 8, !tbaa !576
  %120 = load i64, ptr %10, align 8, !tbaa !10
  %121 = icmp uge i64 %119, %120
  br i1 %121, label %122, label %123

122:                                              ; preds = %116
  br label %141

123:                                              ; preds = %116
  %124 = load ptr, ptr %8, align 8, !tbaa !572
  %125 = getelementptr inbounds nuw %struct.raw_extension_st, ptr %124, i32 0, i32 3
  %126 = load i32, ptr %125, align 8, !tbaa !577
  %127 = load ptr, ptr %9, align 8, !tbaa !270
  %128 = load ptr, ptr %8, align 8, !tbaa !572
  %129 = getelementptr inbounds nuw %struct.raw_extension_st, ptr %128, i32 0, i32 4
  %130 = load i64, ptr %129, align 8, !tbaa !576
  %131 = getelementptr inbounds nuw i32, ptr %127, i64 %130
  store i32 %126, ptr %131, align 4, !tbaa !14
  br label %132

132:                                              ; preds = %123, %104
  br label %133

133:                                              ; preds = %132
  %134 = load i64, ptr %11, align 8, !tbaa !10
  %135 = add i64 %134, 1
  store i64 %135, ptr %11, align 8, !tbaa !10
  br label %96, !llvm.loop !578

136:                                              ; preds = %96
  %137 = load ptr, ptr %9, align 8, !tbaa !270
  %138 = load ptr, ptr %6, align 8, !tbaa !569
  store ptr %137, ptr %138, align 8, !tbaa !270
  %139 = load i64, ptr %10, align 8, !tbaa !10
  %140 = load ptr, ptr %7, align 8, !tbaa !12
  store i64 %139, ptr %140, align 8, !tbaa !10
  store i32 1, ptr %4, align 4
  store i32 1, ptr %13, align 4
  br label %143

141:                                              ; preds = %122
  %142 = load ptr, ptr %9, align 8, !tbaa !270
  call void @CRYPTO_free(ptr noundef %142, ptr noundef @.str, i32 noundef 6819)
  store i32 0, ptr %4, align 4
  store i32 1, ptr %13, align 4
  br label %143

143:                                              ; preds = %141, %136, %94, %86, %54, %42
  call void @llvm.lifetime.end.p0(i64 8, ptr %12) #9
  call void @llvm.lifetime.end.p0(i64 8, ptr %11) #9
  call void @llvm.lifetime.end.p0(i64 8, ptr %10) #9
  call void @llvm.lifetime.end.p0(i64 8, ptr %9) #9
  call void @llvm.lifetime.end.p0(i64 8, ptr %8) #9
  %144 = load i32, ptr %4, align 4
  ret i32 %144
}