; Function Attrs: nounwind uwtable
define range(i32 0, 2) i32 @SSL_client_hello_get1_extensions_present(ptr noundef %0, ptr noundef writeonly captures(address_is_null) %1, ptr noundef writeonly captures(address_is_null) %2) local_unnamed_addr #0 {
  %4 = icmp eq ptr %0, null
  br i1 %4, label %.thread, label %5

5:                                                ; preds = %3
  %6 = load i32, ptr %0, align 8, !tbaa !19
  %7 = icmp eq i32 %6, 0
  br i1 %7, label %.thread52, label %8

8:                                                ; preds = %5
  %9 = and i32 %6, 128
  %.not = icmp eq i32 %9, 0
  br i1 %.not, label %.thread, label %10

10:                                               ; preds = %8
  %11 = tail call ptr @ossl_quic_obj_get0_handshake_layer(ptr noundef nonnull %0) #20
  %12 = icmp eq ptr %11, null
  br i1 %12, label %.thread, label %.thread52

.thread52:                                        ; preds = %5, %10
  %13 = phi ptr [ %11, %10 ], [ %0, %5 ]
  %14 = getelementptr inbounds nuw i8, ptr %13, i64 2904
  %15 = load ptr, ptr %14, align 8, !tbaa !349
  %16 = icmp eq ptr %15, null
  %17 = icmp eq ptr %1, null
  %or.cond = or i1 %17, %16
  %18 = icmp eq ptr %2, null
  %or.cond3 = or i1 %18, %or.cond
  br i1 %or.cond3, label %.thread, label %.preheader53

.preheader53:                                     ; preds = %.thread52
  %19 = getelementptr inbounds nuw i8, ptr %15, i64 640
  %20 = load i64, ptr %19, align 8, !tbaa !499
  %.not59 = icmp eq i64 %20, 0
  br i1 %.not59, label %._crit_edge.thread, label %.lr.ph

.lr.ph:                                           ; preds = %.preheader53
  %21 = getelementptr inbounds nuw i8, ptr %15, i64 648
  %22 = load ptr, ptr %21, align 8, !tbaa !350
  br label %23

23:                                               ; preds = %.lr.ph, %23
  %.03955 = phi i64 [ 0, %.lr.ph ], [ %27, %23 ]
  %.04054 = phi i64 [ 0, %.lr.ph ], [ %spec.select, %23 ]
  %24 = getelementptr inbounds nuw %struct.raw_extension_st, ptr %22, i64 %.03955, i32 1
  %25 = load i32, ptr %24, align 8, !tbaa !500
  %.not51 = icmp ne i32 %25, 0
  %26 = zext i1 %.not51 to i64
  %spec.select = add i64 %.04054, %26
  %27 = add nuw i64 %.03955, 1
  %exitcond.not = icmp eq i64 %27, %20
  br i1 %exitcond.not, label %._crit_edge, label %23, !llvm.loop !502

._crit_edge:                                      ; preds = %23
  %28 = icmp eq i64 %spec.select, 0
  br i1 %28, label %._crit_edge.thread, label %29

._crit_edge.thread:                               ; preds = %.preheader53, %._crit_edge
  store ptr null, ptr %1, align 8, !tbaa !503
  store i64 0, ptr %2, align 8, !tbaa !285
  br label %.thread

29:                                               ; preds = %._crit_edge
  %30 = shl i64 %spec.select, 2
  %31 = tail call noalias ptr @CRYPTO_malloc(i64 noundef %30, ptr noundef nonnull @.str, i32 noundef 6805) #20
  %32 = icmp eq ptr %31, null
  br i1 %32, label %.thread, label %.preheader

.preheader:                                       ; preds = %29
  %33 = load ptr, ptr %14, align 8, !tbaa !349
  %34 = getelementptr inbounds nuw i8, ptr %33, i64 640
  %35 = load i64, ptr %34, align 8, !tbaa !499
  %.not60 = icmp eq i64 %35, 0
  br i1 %.not60, label %._crit_edge58, label %.lr.ph57

.lr.ph57:                                         ; preds = %.preheader
  %36 = getelementptr inbounds nuw i8, ptr %33, i64 648
  %37 = load ptr, ptr %36, align 8, !tbaa !350
  br label %38

38:                                               ; preds = %.lr.ph57, %49
  %.156 = phi i64 [ 0, %.lr.ph57 ], [ %50, %49 ]
  %39 = getelementptr inbounds nuw %struct.raw_extension_st, ptr %37, i64 %.156
  %40 = getelementptr inbounds nuw i8, ptr %39, i64 16
  %41 = load i32, ptr %40, align 8, !tbaa !500
  %.not49 = icmp eq i32 %41, 0
  br i1 %.not49, label %49, label %42

42:                                               ; preds = %38
  %43 = getelementptr inbounds nuw i8, ptr %39, i64 32
  %44 = load i64, ptr %43, align 8, !tbaa !504
  %.not50 = icmp ult i64 %44, %spec.select
  br i1 %.not50, label %45, label %51

45:                                               ; preds = %42
  %46 = getelementptr inbounds nuw i8, ptr %39, i64 24
  %47 = load i32, ptr %46, align 8, !tbaa !505
  %48 = getelementptr inbounds nuw i32, ptr %31, i64 %44
  store i32 %47, ptr %48, align 4, !tbaa !364
  br label %49

49:                                               ; preds = %38, %45
  %50 = add nuw i64 %.156, 1
  %exitcond61.not = icmp eq i64 %50, %35
  br i1 %exitcond61.not, label %._crit_edge58, label %38, !llvm.loop !506

._crit_edge58:                                    ; preds = %49, %.preheader
  store ptr %31, ptr %1, align 8, !tbaa !503
  store i64 %spec.select, ptr %2, align 8, !tbaa !285
  br label %.thread

51:                                               ; preds = %42
  tail call void @CRYPTO_free(ptr noundef nonnull %31, ptr noundef nonnull @.str, i32 noundef 6819) #20
  br label %.thread

.thread:                                          ; preds = %8, %3, %29, %.thread52, %10, %51, %._crit_edge58, %._crit_edge.thread
  %.0 = phi i32 [ 1, %._crit_edge.thread ], [ 0, %51 ], [ 1, %._crit_edge58 ], [ 0, %10 ], [ 0, %.thread52 ], [ 0, %29 ], [ 0, %3 ], [ 0, %8 ]
  ret i32 %.0
}